target datalayout = "e-m:e-p270:32:32-p271:32:32-p272:64:64-i64:64-i128:128-f80:128-n8:16:32:64-S128"
target triple = "x86_64-pc-linux-gnu"

%struct.point_t = type { float, float }
%struct.dt_lut_t = type { ptr, ptr, ptr, ptr, ptr, ptr, ptr, ptr, ptr, ptr, ptr, ptr, ptr, ptr, ptr, ptr, ptr, %struct.image_t, %struct.image_t, ptr, ptr, ptr, ptr, ptr }
%struct.image_t = type { ptr, ptr, ptr, i32, i32, ptr, float, i32, i32, float, [4 x %struct.point_t], ptr, i32 }

@.str.18 = private unnamed_addr constant [2 x i8] c"w\00", align 1
@.str.19 = private unnamed_addr constant [40 x i8] c"<?xml version=\221.0\22 encoding=\22UTF-8\22?>\0A\00", align 1
@.str.20 = private unnamed_addr constant [33 x i8] c"<darktable_style version=\221.0\22>\0A\00", align 1
@.str.21 = private unnamed_addr constant [8 x i8] c"<info>\0A\00", align 1
@.str.22 = private unnamed_addr constant [19 x i8] c"  <name>%s</name>\0A\00", align 1
@.str.23 = private unnamed_addr constant [33 x i8] c"  <description>%s</description>\0A\00", align 1
@.str.24 = private unnamed_addr constant [9 x i8] c"</info>\0A\00", align 1
@.str.25 = private unnamed_addr constant [9 x i8] c"<style>\0A\00", align 1
@.str.26 = private unnamed_addr constant [10 x i8] c"basecurve\00", align 1
@.str.27 = private unnamed_addr constant [85 x i8] c"gz09eJxjYIAAM6vnNnqyn22E9n235b6aa3cy6rVdRaK9/Y970fYf95bbMzA0QPEoGEqADYnNhMQGAO0WEJo=\00", align 1
@.str.28 = private unnamed_addr constant [8 x i8] c"colorin\00", align 1
@.str.29 = private unnamed_addr constant [25 x i8] c"gz09eJzjZqAfYIHSAAWQABA=\00", align 1
@.str.30 = private unnamed_addr constant [10 x i8] c"tonecurve\00", align 1
@.str.31 = private unnamed_addr constant [13 x i8] c"colorchecker\00", align 1
@.str.32 = private unnamed_addr constant [10 x i8] c"</style>\0A\00", align 1
@.str.33 = private unnamed_addr constant [20 x i8] c"</darktable_style>\0A\00", align 1

; Function Attrs: nounwind uwtable
define internal void @export_style(ptr noundef %0, ptr noundef %1, ptr noundef %2, ptr noundef %3, i32 noundef %4, i32 noundef %5, i32 noundef %6, i32 noundef %7) #0 {
  %9 = alloca ptr, align 8
  %10 = alloca ptr, align 8
  %11 = alloca ptr, align 8
  %12 = alloca ptr, align 8
  %13 = alloca i32, align 4
  %14 = alloca i32, align 4
  %15 = alloca i32, align 4
  %16 = alloca i32, align 4
  %17 = alloca i32, align 4
  %18 = alloca ptr, align 8
  %19 = alloca i32, align 4
  store ptr %0, ptr %9, align 8, !tbaa !14
  store ptr %1, ptr %10, align 8, !tbaa !29
  store ptr %2, ptr %11, align 8, !tbaa !29
  store ptr %3, ptr %12, align 8, !tbaa !29
  store i32 %4, ptr %13, align 4, !tbaa !7
  store i32 %5, ptr %14, align 4, !tbaa !7
  store i32 %6, ptr %15, align 4, !tbaa !7
  store i32 %7, ptr %16, align 4, !tbaa !7
  call void @llvm.lifetime.start.p0(i64 4, ptr %17) #15
  store i32 0, ptr %17, align 4, !tbaa !7
  call void @llvm.lifetime.start.p0(i64 8, ptr %18) #15
  %20 = load ptr, ptr %10, align 8, !tbaa !29
  %21 = call noalias ptr @fopen(ptr noundef %20, ptr noundef @.str.18)
  store ptr %21, ptr %18, align 8, !tbaa !34
  %22 = load ptr, ptr %18, align 8, !tbaa !34
  %23 = icmp ne ptr %22, null
  br i1 %23, label %25, label %24

24:                                               ; preds = %8
  store i32 1, ptr %19, align 4
  br label %82

25:                                               ; preds = %8
  %26 = load ptr, ptr %18, align 8, !tbaa !34
  %27 = call i32 (ptr, ptr, ...) @fprintf(ptr noundef %26, ptr noundef @.str.19) #15
  %28 = load ptr, ptr %18, align 8, !tbaa !34
  %29 = call i32 (ptr, ptr, ...) @fprintf(ptr noundef %28, ptr noundef @.str.20) #15
  %30 = load ptr, ptr %18, align 8, !tbaa !34
  %31 = call i32 (ptr, ptr, ...) @fprintf(ptr noundef %30, ptr noundef @.str.21) #15
  %32 = load ptr, ptr %18, align 8, !tbaa !34
  %33 = load ptr, ptr %11, align 8, !tbaa !29
  %34 = call i32 (ptr, ptr, ...) @fprintf(ptr noundef %32, ptr noundef @.str.22, ptr noundef %33) #15
  %35 = load ptr, ptr %18, align 8, !tbaa !34
  %36 = load ptr, ptr %12, align 8, !tbaa !29
  %37 = call i32 (ptr, ptr, ...) @fprintf(ptr noundef %35, ptr noundef @.str.23, ptr noundef %36) #15
  %38 = load ptr, ptr %18, align 8, !tbaa !34
  %39 = call i32 (ptr, ptr, ...) @fprintf(ptr noundef %38, ptr noundef @.str.24) #15
  %40 = load ptr, ptr %18, align 8, !tbaa !34
  %41 = call i32 (ptr, ptr, ...) @fprintf(ptr noundef %40, ptr noundef @.str.25) #15
  %42 = load i32, ptr %13, align 4, !tbaa !7
  %43 = icmp ne i32 %42, 0
  br i1 %43, label %44, label %48

44:                                               ; preds = %25
  %45 = load ptr, ptr %18, align 8, !tbaa !34
  %46 = load i32, ptr %17, align 4, !tbaa !7
  %47 = add nsw i32 %46, 1
  store i32 %47, ptr %17, align 4, !tbaa !7
  call void @print_xml_plugin(ptr noundef %45, i32 noundef %46, i32 noundef 2, ptr noundef @.str.26, ptr noundef @.str.27, i32 noundef 0)
  br label %48

48:                                               ; preds = %44, %25
  %49 = load i32, ptr %15, align 4, !tbaa !7
  %50 = icmp ne i32 %49, 0
  br i1 %50, label %51, label %55

51:                                               ; preds = %48
  %52 = load ptr, ptr %18, align 8, !tbaa !34
  %53 = load i32, ptr %17, align 4, !tbaa !7
  %54 = add nsw i32 %53, 1
  store i32 %54, ptr %17, align 4, !tbaa !7
  call void @print_xml_plugin(ptr noundef %52, i32 noundef %53, i32 noundef 4, ptr noundef @.str.28, ptr noundef @.str.29, i32 noundef 1)
  br label %55

55:                                               ; preds = %51, %48
  %56 = load i32, ptr %16, align 4, !tbaa !7
  %57 = icmp ne i32 %56, 0
  br i1 %57, label %58, label %65

58:                                               ; preds = %55
  %59 = load ptr, ptr %18, align 8, !tbaa !34
  %60 = load i32, ptr %17, align 4, !tbaa !7
  %61 = add nsw i32 %60, 1
  store i32 %61, ptr %17, align 4, !tbaa !7
  %62 = load ptr, ptr %9, align 8, !tbaa !14
  %63 = getelementptr inbounds nuw %struct.dt_lut_t, ptr %62, i32 0, i32 22
  %64 = load ptr, ptr %63, align 8, !tbaa !32
  call void @print_xml_plugin(ptr noundef %59, i32 noundef %60, i32 noundef 4, ptr noundef @.str.30, ptr noundef %64, i32 noundef 1)
  br label %65

65:                                               ; preds = %58, %55
  %66 = load i32, ptr %14, align 4, !tbaa !7
  %67 = icmp ne i32 %66, 0
  br i1 %67, label %68, label %75

68:                                               ; preds = %65
  %69 = load ptr, ptr %18, align 8, !tbaa !34
  %70 = load i32, ptr %17, align 4, !tbaa !7
  %71 = add nsw i32 %70, 1
  store i32 %71, ptr %17, align 4, !tbaa !7
  %72 = load ptr, ptr %9, align 8, !tbaa !14
  %73 = getelementptr inbounds nuw %struct.dt_lut_t, ptr %72, i32 0, i32 23
  %74 = load ptr, ptr %73, align 8, !tbaa !33
  call void @print_xml_plugin(ptr noundef %69, i32 noundef %70, i32 noundef 2, ptr noundef @.str.31, ptr noundef %74, i32 noundef 1)
  br label %75

75:                                               ; preds = %68, %65
  %76 = load ptr, ptr %18, align 8, !tbaa !34
  %77 = call i32 (ptr, ptr, ...) @fprintf(ptr noundef %76, ptr noundef @.str.32) #15
  %78 = load ptr, ptr %18, align 8, !tbaa !34
  %79 = call i32 (ptr, ptr, ...) @fprintf(ptr noundef %78, ptr noundef @.str.33) #15
  %80 = load ptr, ptr %18, align 8, !tbaa !34
  %81 = call i32 @fclose(ptr noundef %80)
  store i32 0, ptr %19, align 4
  br label %82

82:                                               ; preds = %75, %24
  call void @llvm.lifetime.end.p0(i64 8, ptr %18) #15
  call void @llvm.lifetime.end.p0(i64 4, ptr %17) #15
  %83 = load i32, ptr %19, align 4
  switch i32 %83, label %85 [
    i32 0, label %84
    i32 1, label %84
  ]

84:                                               ; preds = %82, %82
  ret void

85:                                               ; preds = %82
  unreachable
}