; Function Attrs: nofree nounwind uwtable
define internal fastcc void @export_style(ptr noundef readonly captures(none) %0, ptr noundef readonly captures(none) %1, ptr noundef %2, ptr noundef %3, i32 noundef %4, i32 noundef %5, i32 noundef %6, i32 noundef %7) unnamed_addr #7 {
  %9 = tail call noalias ptr @fopen(ptr noundef %1, ptr noundef nonnull @.str.18)
  %.not = icmp eq ptr %9, null
  br i1 %.not, label %35, label %10

10:                                               ; preds = %8
  %11 = tail call i64 @fwrite(ptr nonnull @.str.19, i64 39, i64 1, ptr nonnull %9)
  %12 = tail call i64 @fwrite(ptr nonnull @.str.20, i64 32, i64 1, ptr nonnull %9)
  %13 = tail call i64 @fwrite(ptr nonnull @.str.21, i64 7, i64 1, ptr nonnull %9)
  %14 = tail call i32 (ptr, ptr, ...) @fprintf(ptr noundef nonnull %9, ptr noundef nonnull @.str.22, ptr noundef %2) #24
  %15 = tail call i32 (ptr, ptr, ...) @fprintf(ptr noundef nonnull %9, ptr noundef nonnull @.str.23, ptr noundef %3) #24
  %16 = tail call i64 @fwrite(ptr nonnull @.str.24, i64 8, i64 1, ptr nonnull %9)
  %17 = tail call i64 @fwrite(ptr nonnull @.str.25, i64 8, i64 1, ptr nonnull %9)
  %.not28 = icmp eq i32 %4, 0
  br i1 %.not28, label %19, label %18

18:                                               ; preds = %10
  tail call fastcc void @print_xml_plugin(ptr noundef %9, i32 noundef 0, i32 noundef 2, ptr noundef nonnull @.str.26, ptr noundef nonnull @.str.27, i32 noundef 0)
  br label %19

19:                                               ; preds = %18, %10
  %.0 = phi i32 [ 1, %18 ], [ 0, %10 ]
  %.not29 = icmp eq i32 %6, 0
  br i1 %.not29, label %22, label %20

20:                                               ; preds = %19
  %21 = add nuw nsw i32 %.0, 1
  tail call fastcc void @print_xml_plugin(ptr noundef %9, i32 noundef %.0, i32 noundef 4, ptr noundef nonnull @.str.28, ptr noundef nonnull @.str.29, i32 noundef 1)
  br label %22

22:                                               ; preds = %20, %19
  %.1 = phi i32 [ %21, %20 ], [ %.0, %19 ]
  %.not30 = icmp eq i32 %7, 0
  br i1 %.not30, label %27, label %23

23:                                               ; preds = %22
  %24 = add nuw nsw i32 %.1, 1
  %25 = getelementptr inbounds nuw i8, ptr %0, i64 368
  %26 = load ptr, ptr %25, align 8, !tbaa !65
  tail call fastcc void @print_xml_plugin(ptr noundef %9, i32 noundef %.1, i32 noundef 4, ptr noundef nonnull @.str.30, ptr noundef %26, i32 noundef 1)
  br label %27

27:                                               ; preds = %23, %22
  %.2 = phi i32 [ %24, %23 ], [ %.1, %22 ]
  %.not31 = icmp eq i32 %5, 0
  br i1 %.not31, label %31, label %28

28:                                               ; preds = %27
  %29 = getelementptr inbounds nuw i8, ptr %0, i64 376
  %30 = load ptr, ptr %29, align 8, !tbaa !66
  tail call fastcc void @print_xml_plugin(ptr noundef %9, i32 noundef %.2, i32 noundef 2, ptr noundef nonnull @.str.31, ptr noundef %30, i32 noundef 1)
  br label %31

31:                                               ; preds = %28, %27
  %32 = tail call i64 @fwrite(ptr nonnull @.str.32, i64 9, i64 1, ptr nonnull %9)
  %33 = tail call i64 @fwrite(ptr nonnull @.str.33, i64 19, i64 1, ptr nonnull %9)
  %34 = tail call i32 @fclose(ptr noundef nonnull %9)
  br label %35

35:                                               ; preds = %8, %31
  ret void
}